; ModuleID = 'source-C-CXX/56/997.c'
source_filename = "source-C-CXX/56/997.c"
target datalayout = "e-m:e-p270:32:32-p271:32:32-p272:64:64-i64:64-f80:128-n8:16:32:64-S128"
target triple = "x86_64-pc-linux-gnu"

@.str = private unnamed_addr constant [3 x i8] c"%d\00", align 1
@.str.1 = private unnamed_addr constant [3 x i8] c"%s\00", align 1

; Function Attrs: nofree nounwind sspstrong uwtable
define dso_local i32 @main() local_unnamed_addr #0 {
  %1 = alloca i32, align 4
  %2 = alloca [51 x i8], align 16
  %3 = bitcast i32* %1 to i8*
  call void @llvm.lifetime.start.p0i8(i64 4, i8* nonnull %3) #4
  %4 = getelementptr inbounds [51 x i8], [51 x i8]* %2, i64 0, i64 0
  call void @llvm.lifetime.start.p0i8(i64 51, i8* nonnull %4) #4
  %5 = call i32 (i8*, ...) @__isoc99_scanf(i8* getelementptr inbounds ([3 x i8], [3 x i8]* @.str, i64 0, i64 0), i32* nonnull %1)
  %6 = load i32, i32* %1, align 4, !tbaa !5
  %7 = icmp sgt i32 %6, 0
  br i1 %7, label %8, label %63

8:                                                ; preds = %0, %58
  %9 = phi i32 [ %60, %58 ], [ 0, %0 ]
  %10 = call i32 (i8*, ...) @__isoc99_scanf(i8* getelementptr inbounds ([3 x i8], [3 x i8]* @.str.1, i64 0, i64 0), i8* nonnull %4)
  %11 = load i8, i8* %4, align 16, !tbaa !9
  %12 = icmp eq i8 %11, 0
  br i1 %12, label %21, label %13

13:                                               ; preds = %8, %13
  %14 = phi i64 [ %17, %13 ], [ 0, %8 ]
  %15 = phi i32 [ %16, %13 ], [ 0, %8 ]
  %16 = add nuw nsw i32 %15, 1
  %17 = add nuw nsw i64 %14, 1
  %18 = getelementptr inbounds [51 x i8], [51 x i8]* %2, i64 0, i64 %17
  %19 = load i8, i8* %18, align 1, !tbaa !9
  %20 = icmp eq i8 %19, 0
  br i1 %20, label %21, label %13, !llvm.loop !10

21:                                               ; preds = %13, %8
  %22 = phi i32 [ 0, %8 ], [ %16, %13 ]
  %23 = add nsw i32 %22, -2
  %24 = sext i32 %23 to i64
  %25 = getelementptr inbounds [51 x i8], [51 x i8]* %2, i64 0, i64 %24
  %26 = load i8, i8* %25, align 1, !tbaa !9
  %27 = icmp eq i8 %26, 101
  br i1 %27, label %28, label %34

28:                                               ; preds = %21
  %29 = add nsw i32 %22, -1
  %30 = sext i32 %29 to i64
  %31 = getelementptr inbounds [51 x i8], [51 x i8]* %2, i64 0, i64 %30
  %32 = load i8, i8* %31, align 1, !tbaa !9
  %33 = icmp eq i8 %32, 114
  br i1 %33, label %56, label %58

34:                                               ; preds = %21
  %35 = add nsw i32 %22, -3
  %36 = sext i32 %35 to i64
  %37 = getelementptr inbounds [51 x i8], [51 x i8]* %2, i64 0, i64 %36
  %38 = load i8, i8* %37, align 1, !tbaa !9
  %39 = icmp eq i8 %38, 105
  %40 = icmp eq i8 %26, 110
  %41 = select i1 %39, i1 %40, i1 false
  br i1 %41, label %42, label %48

42:                                               ; preds = %34
  %43 = add nsw i32 %22, -1
  %44 = sext i32 %43 to i64
  %45 = getelementptr inbounds [51 x i8], [51 x i8]* %2, i64 0, i64 %44
  %46 = load i8, i8* %45, align 1, !tbaa !9
  %47 = icmp eq i8 %46, 103
  br i1 %47, label %56, label %58

48:                                               ; preds = %34
  %49 = icmp eq i8 %26, 108
  br i1 %49, label %50, label %58

50:                                               ; preds = %48
  %51 = add nsw i32 %22, -1
  %52 = sext i32 %51 to i64
  %53 = getelementptr inbounds [51 x i8], [51 x i8]* %2, i64 0, i64 %52
  %54 = load i8, i8* %53, align 1, !tbaa !9
  %55 = icmp eq i8 %54, 121
  br i1 %55, label %56, label %58

56:                                               ; preds = %50, %42, %28
  %57 = phi i8* [ %25, %28 ], [ %37, %42 ], [ %25, %50 ]
  store i8 0, i8* %57, align 1, !tbaa !9
  br label %58

58:                                               ; preds = %56, %28, %42, %50, %48
  %59 = call i32 @puts(i8* nonnull %4)
  %60 = add nuw nsw i32 %9, 1
  %61 = load i32, i32* %1, align 4, !tbaa !5
  %62 = icmp slt i32 %60, %61
  br i1 %62, label %8, label %63, !llvm.loop !12

63:                                               ; preds = %58, %0
  call void @llvm.lifetime.end.p0i8(i64 51, i8* nonnull %4) #4
  call void @llvm.lifetime.end.p0i8(i64 4, i8* nonnull %3) #4
  ret i32 0
}

; Function Attrs: argmemonly mustprogress nofree nosync nounwind willreturn
declare void @llvm.lifetime.start.p0i8(i64 immarg, i8* nocapture) #1

; Function Attrs: nofree nounwind
declare noundef i32 @__isoc99_scanf(i8* nocapture noundef readonly, ...) local_unnamed_addr #2

; Function Attrs: argmemonly mustprogress nofree nosync nounwind willreturn
declare void @llvm.lifetime.end.p0i8(i64 immarg, i8* nocapture) #1

; Function Attrs: nofree nounwind
declare noundef i32 @puts(i8* nocapture noundef readonly) local_unnamed_addr #3


!llvm.module.flags = !{!0, !1, !2, !3}
!llvm.ident = !{!4}

!0 = !{i32 1, !"wchar_size", i32 4}
!1 = !{i32 7, !"PIC Level", i32 2}
!2 = !{i32 7, !"PIE Level", i32 2}
!3 = !{i32 7, !"uwtable", i32 1}
!4 = !{!"clang version 13.0.0"}
!5 = !{!6, !6, i64 0}
!6 = !{!"int", !7, i64 0}
!7 = !{!"omnipotent char", !8, i64 0}
!8 = !{!"Simple C/C++ TBAA"}
!9 = !{!7, !7, i64 0}
!10 = distinct !{!10, !11}
!11 = !{!"llvm.loop.mustprogress"}
!12 = distinct !{!12, !11}
